target datalayout = "e-m:e-p270:32:32-p271:32:32-p272:64:64-i64:64-i128:128-f80:128-n8:16:32:64-S128"
target triple = "x86_64-pc-linux-gnu"

%struct.VuDev = type { i32, i32, ptr, ptr, %struct.VuDevInflightInfo, i32, %union.pthread_mutex_t, i32, i64, ptr, i64, i64, i8, i16, ptr, ptr, ptr, ptr, ptr, i32, i8 }
%struct.VuDevInflightInfo = type { i32, ptr, i64 }
%union.pthread_mutex_t = type { %struct.__pthread_mutex_s }
%struct.__pthread_mutex_s = type { i32, i32, i32, i32, i32, i16, i16, %struct.__pthread_internal_list }
%struct.__pthread_internal_list = type { ptr, ptr }
%struct.VhostUserMsg = type <{ i32, i32, i32, %union.anon, [8 x i32], i32, ptr }>
%union.anon = type { %struct.VhostUserMemory, [8 x i8] }
%struct.VhostUserMemory = type { i32, i32, [8 x %struct.VhostUserMemoryRegion] }
%struct.VhostUserMemoryRegion = type { i64, i64, i64, i64 }

@.str.80 = private unnamed_addr constant [41 x i8] c"Invalid backend_req_fd message (%d fd's)\00", align 1

; Function Attrs: nounwind uwtable
define internal zeroext i1 @vu_set_backend_req_fd(ptr noundef %0, ptr noundef %1) #0 {
  %3 = alloca i1, align 1
  %4 = alloca ptr, align 8
  %5 = alloca ptr, align 8
  store ptr %0, ptr %4, align 8
  store ptr %1, ptr %5, align 8
  %6 = load ptr, ptr %5, align 8
  %7 = getelementptr inbounds nuw %struct.VhostUserMsg, ptr %6, i32 0, i32 5
  %8 = load i32, ptr %7, align 1
  %9 = icmp ne i32 %8, 1
  br i1 %9, label %10, label %15

10:                                               ; preds = %2
  %11 = load ptr, ptr %4, align 8
  %12 = load ptr, ptr %5, align 8
  %13 = getelementptr inbounds nuw %struct.VhostUserMsg, ptr %12, i32 0, i32 5
  %14 = load i32, ptr %13, align 1
  call void (ptr, ptr, ...) @vu_panic(ptr noundef %11, ptr noundef @.str.80, i32 noundef %14)
  store i1 false, ptr %3, align 1
  br label %34

15:                                               ; preds = %2
  %16 = load ptr, ptr %4, align 8
  %17 = getelementptr inbounds nuw %struct.VuDev, ptr %16, i32 0, i32 7
  %18 = load i32, ptr %17, align 8
  %19 = icmp ne i32 %18, -1
  br i1 %19, label %20, label %25

20:                                               ; preds = %15
  %21 = load ptr, ptr %4, align 8
  %22 = getelementptr inbounds nuw %struct.VuDev, ptr %21, i32 0, i32 7
  %23 = load i32, ptr %22, align 8
  %24 = call i32 @close(i32 noundef %23)
  br label %25

25:                                               ; preds = %20, %15
  %26 = load ptr, ptr %5, align 8
  %27 = getelementptr inbounds nuw %struct.VhostUserMsg, ptr %26, i32 0, i32 4
  %28 = getelementptr inbounds [8 x i32], ptr %27, i64 0, i64 0
  %29 = load i32, ptr %28, align 1
  %30 = load ptr, ptr %4, align 8
  %31 = getelementptr inbounds nuw %struct.VuDev, ptr %30, i32 0, i32 7
  store i32 %29, ptr %31, align 8
  br label %32

32:                                               ; preds = %25
  br label %33

33:                                               ; preds = %32
  store i1 false, ptr %3, align 1
  br label %34

34:                                               ; preds = %33, %10
  %35 = load i1, ptr %3, align 1
  ret i1 %35
}