; Function Attrs: nounwind uwtable
define internal fastcc void @vu_set_backend_req_fd(ptr noundef %0, ptr noundef nonnull readonly captures(none) %1) unnamed_addr #3 {
  %3 = getelementptr inbounds nuw i8, ptr %1, i64 316
  %4 = load i32, ptr %3, align 1
  %.not = icmp eq i32 %4, 1
  br i1 %.not, label %6, label %5

5:                                                ; preds = %2
  tail call void (ptr, ptr, ...) @vu_panic(ptr noundef %0, ptr noundef nonnull @.str.80, i32 noundef %4)
  br label %14

6:                                                ; preds = %2
  %7 = getelementptr inbounds nuw i8, ptr %0, i64 96
  %8 = load i32, ptr %7, align 8
  %.not9 = icmp eq i32 %8, -1
  br i1 %.not9, label %11, label %9

9:                                                ; preds = %6
  %10 = tail call i32 @close(i32 noundef %8) #21
  br label %11

11:                                               ; preds = %9, %6
  %12 = getelementptr inbounds nuw i8, ptr %1, i64 284
  %13 = load i32, ptr %12, align 1
  store i32 %13, ptr %7, align 8
  br label %14

14:                                               ; preds = %11, %5
  ret void
}